target datalayout = "e-m:e-p270:32:32-p271:32:32-p272:64:64-i64:64-i128:128-f80:128-n8:16:32:64-S128"
target triple = "x86_64-pc-linux-gnu"

%class.Handle = type { ptr }
%class.SignatureStream = type { ptr, i32, i32, i32, i32, i8, i32, ptr, ptr }

; Function Attrs: mustprogress nounwind uwtable
define linkonce_odr hidden noundef zeroext i1 @_Z17is_reference_type9BasicTypeb(i8 noundef zeroext %0, i1 noundef zeroext %1) #1 comdat {
  %3 = alloca i8, align 1
  %4 = alloca i8, align 1
  store i8 %0, ptr %3, align 1
  %5 = zext i1 %1 to i8
  store i8 %5, ptr %4, align 1
  %6 = load i8, ptr %3, align 1
  %7 = zext i8 %6 to i32
  %8 = icmp eq i32 %7, 12
  br i1 %8, label %22, label %9

9:                                                ; preds = %2
  %10 = load i8, ptr %3, align 1
  %11 = zext i8 %10 to i32
  %12 = icmp eq i32 %11, 13
  br i1 %12, label %22, label %13

13:                                               ; preds = %9
  %14 = load i8, ptr %4, align 1
  %15 = trunc i8 %14 to i1
  br i1 %15, label %16, label %20

16:                                               ; preds = %13
  %17 = load i8, ptr %3, align 1
  %18 = zext i8 %17 to i32
  %19 = icmp eq i32 %18, 16
  br label %20

20:                                               ; preds = %16, %13
  %21 = phi i1 [ false, %13 ], [ %19, %16 ]
  br label %22

22:                                               ; preds = %20, %9, %2
  %23 = phi i1 [ true, %9 ], [ true, %2 ], [ %21, %20 ]
  ret i1 %23
}

; Function Attrs: mustprogress nounwind uwtable
define linkonce_odr hidden noundef ptr @_ZNK6Handle3objEv(ptr noundef nonnull align 8 dereferenceable(8) %0) #1 comdat align 2 {
  %2 = alloca ptr, align 8
  store ptr %0, ptr %2, align 8
  %3 = load ptr, ptr %2, align 8
  %4 = getelementptr inbounds %class.Handle, ptr %3, i32 0, i32 0
  %5 = load ptr, ptr %4, align 8
  %6 = icmp eq ptr %5, null
  br i1 %6, label %7, label %8

7:                                                ; preds = %1
  br label %12

8:                                                ; preds = %1
  %9 = getelementptr inbounds %class.Handle, ptr %3, i32 0, i32 0
  %10 = load ptr, ptr %9, align 8
  %11 = load ptr, ptr %10, align 8
  br label %12

12:                                               ; preds = %8, %7
  %13 = phi ptr [ null, %7 ], [ %11, %8 ]
  ret ptr %13
}

; Function Attrs: mustprogress nounwind uwtable
define linkonce_odr hidden noundef ptr @_ZN15SignatureStream9as_symbolEv(ptr noundef nonnull align 8 dereferenceable(48) %0) #1 comdat align 2 {
  %2 = alloca ptr, align 8
  store ptr %0, ptr %2, align 8
  %3 = load ptr, ptr %2, align 8
  %4 = call noundef ptr @_ZN15SignatureStream11find_symbolEv(ptr noundef nonnull align 8 dereferenceable(48) %3)
  ret ptr %4
}

; Function Attrs: mustprogress nounwind uwtable
define linkonce_odr hidden noundef zeroext i1 @_ZNK15SignatureStream12is_referenceEv(ptr noundef nonnull align 8 dereferenceable(48) %0) #1 comdat align 2 {
  %2 = alloca ptr, align 8
  store ptr %0, ptr %2, align 8
  %3 = load ptr, ptr %2, align 8
  %4 = getelementptr inbounds %class.SignatureStream, ptr %3, i32 0, i32 5
  %5 = load i8, ptr %4, align 8
  %6 = call noundef zeroext i1 @_Z17is_reference_type9BasicTypeb(i8 noundef zeroext %5, i1 noundef zeroext false)
  ret i1 %6
}

; Function Attrs: mustprogress nounwind uwtable
define linkonce_odr hidden noundef zeroext i1 @_ZNK15SignatureStream7is_doneEv(ptr noundef nonnull align 8 dereferenceable(48) %0) #1 comdat align 2 {
  %2 = alloca ptr, align 8
  store ptr %0, ptr %2, align 8
  %3 = load ptr, ptr %2, align 8
  %4 = getelementptr inbounds %class.SignatureStream, ptr %3, i32 0, i32 6
  %5 = load i32, ptr %4, align 4
  %6 = icmp slt i32 %5, 0
  ret i1 %6
}

; Function Attrs: mustprogress nounwind uwtable
define linkonce_odr hidden noundef ptr @_ZNK6HandleclEv(ptr noundef nonnull align 8 dereferenceable(8) %0) #1 comdat align 2 {
  %2 = alloca ptr, align 8
  store ptr %0, ptr %2, align 8
  %3 = load ptr, ptr %2, align 8
  %4 = call noundef ptr @_ZNK6Handle3objEv(ptr noundef nonnull align 8 dereferenceable(8) %3)
  ret ptr %4
}

; Function Attrs: mustprogress nounwind uwtable
define hidden noundef ptr @_ZN16SystemDictionary23check_signature_loadersEP6SymbolP5Klass6HandleS4_b(ptr noundef %0, ptr noundef %1, ptr %2, ptr %3, i1 noundef zeroext %4) #1 align 2 {
  %6 = alloca ptr, align 8
  %7 = alloca %class.Handle, align 8
  %8 = alloca %class.Handle, align 8
  %9 = alloca ptr, align 8
  %10 = alloca ptr, align 8
  %11 = alloca i8, align 1
  %12 = alloca %class.SignatureStream, align 8
  %13 = alloca i32, align 4
  %14 = alloca ptr, align 8
  %15 = alloca %class.Handle, align 8
  %16 = alloca %class.Handle, align 8
  %17 = getelementptr inbounds %class.Handle, ptr %7, i32 0, i32 0
  store ptr %2, ptr %17, align 8
  %18 = getelementptr inbounds %class.Handle, ptr %8, i32 0, i32 0
  store ptr %3, ptr %18, align 8
  store ptr %0, ptr %9, align 8
  store ptr %1, ptr %10, align 8
  %19 = zext i1 %4 to i8
  store i8 %19, ptr %11, align 1
  %20 = call noundef ptr @_ZNK6HandleclEv(ptr noundef nonnull align 8 dereferenceable(8) %7)
  %21 = call noundef ptr @_ZNK6HandleclEv(ptr noundef nonnull align 8 dereferenceable(8) %8)
  %22 = icmp eq ptr %20, %21
  br i1 %22, label %23, label %24

23:                                               ; preds = %5
  store ptr null, ptr %6, align 8
  br label %51

24:                                               ; preds = %5
  %25 = load ptr, ptr %9, align 8
  %26 = load i8, ptr %11, align 1
  %27 = trunc i8 %26 to i1
  call void @_ZN15SignatureStreamC1EPK6Symbolb(ptr noundef nonnull align 8 dereferenceable(48) %12, ptr noundef %25, i1 noundef zeroext %27)
  br label %28

28:                                               ; preds = %47, %24
  %29 = call noundef zeroext i1 @_ZNK15SignatureStream7is_doneEv(ptr noundef nonnull align 8 dereferenceable(48) %12)
  %30 = xor i1 %29, true
  br i1 %30, label %32, label %31

31:                                               ; preds = %28
  store i32 2, ptr %13, align 4
  br label %48

32:                                               ; preds = %28
  %33 = call noundef zeroext i1 @_ZNK15SignatureStream12is_referenceEv(ptr noundef nonnull align 8 dereferenceable(48) %12)
  br i1 %33, label %34, label %46

34:                                               ; preds = %32
  %35 = call noundef ptr @_ZN15SignatureStream9as_symbolEv(ptr noundef nonnull align 8 dereferenceable(48) %12)
  store ptr %35, ptr %14, align 8
  %36 = load ptr, ptr %14, align 8
  %37 = load ptr, ptr %10, align 8
  call void @llvm.memcpy.p0.p0.i64(ptr align 8 %15, ptr align 8 %7, i64 8, i1 false)
  call void @llvm.memcpy.p0.p0.i64(ptr align 8 %16, ptr align 8 %8, i64 8, i1 false)
  %38 = getelementptr inbounds %class.Handle, ptr %15, i32 0, i32 0
  %39 = load ptr, ptr %38, align 8
  %40 = getelementptr inbounds %class.Handle, ptr %16, i32 0, i32 0
  %41 = load ptr, ptr %40, align 8
  %42 = call noundef zeroext i1 @_ZN16SystemDictionary21add_loader_constraintEP6SymbolP5Klass6HandleS4_(ptr noundef %36, ptr noundef %37, ptr %39, ptr %41)
  br i1 %42, label %45, label %43

43:                                               ; preds = %34
  %44 = load ptr, ptr %14, align 8
  store ptr %44, ptr %6, align 8
  store i32 1, ptr %13, align 4
  br label %48

45:                                               ; preds = %34
  br label %46

46:                                               ; preds = %45, %32
  br label %47

47:                                               ; preds = %46
  call void @_ZN15SignatureStream4nextEv(ptr noundef nonnull align 8 dereferenceable(48) %12)
  br label %28, !llvm.loop !10

48:                                               ; preds = %43, %31
  call void @_ZN15SignatureStreamD1Ev(ptr noundef nonnull align 8 dereferenceable(48) %12) #9
  %49 = load i32, ptr %13, align 4
  switch i32 %49, label %53 [
    i32 2, label %50
    i32 1, label %51
  ]

50:                                               ; preds = %48
  store ptr null, ptr %6, align 8
  br label %51

51:                                               ; preds = %50, %48, %23
  %52 = load ptr, ptr %6, align 8
  ret ptr %52

53:                                               ; preds = %48
  unreachable
}