; Function Attrs: mustprogress nounwind uwtable
define hidden noundef ptr @_ZN16SystemDictionary23check_signature_loadersEP6SymbolP5Klass6HandleS4_b(ptr noundef %0, ptr noundef %1, ptr %2, ptr %3, i1 noundef zeroext %4) local_unnamed_addr #0 align 2 {
  %6 = alloca %class.SignatureStream, align 8
  %7 = icmp eq ptr %2, null
  br i1 %7, label %_ZNK6HandleclEv.exit, label %8

8:                                                ; preds = %5
  %9 = load ptr, ptr %2, align 8
  br label %_ZNK6HandleclEv.exit

_ZNK6HandleclEv.exit:                             ; preds = %5, %8
  %10 = phi ptr [ %9, %8 ], [ null, %5 ]
  %11 = icmp eq ptr %3, null
  br i1 %11, label %_ZNK6HandleclEv.exit8, label %12

12:                                               ; preds = %_ZNK6HandleclEv.exit
  %13 = load ptr, ptr %3, align 8
  br label %_ZNK6HandleclEv.exit8

_ZNK6HandleclEv.exit8:                            ; preds = %_ZNK6HandleclEv.exit, %12
  %14 = phi ptr [ %13, %12 ], [ null, %_ZNK6HandleclEv.exit ]
  %15 = icmp eq ptr %10, %14
  br i1 %15, label %30, label %16

16:                                               ; preds = %_ZNK6HandleclEv.exit8
  call void @_ZN15SignatureStreamC1EPK6Symbolb(ptr noundef nonnull align 8 dereferenceable(48) %6, ptr noundef %0, i1 noundef zeroext %4) #14
  %17 = getelementptr inbounds i8, ptr %6, i64 28
  %18 = load i32, ptr %17, align 4
  %19 = icmp slt i32 %18, 0
  br i1 %19, label %._crit_edge, label %.lr.ph

.lr.ph:                                           ; preds = %16
  %20 = getelementptr inbounds i8, ptr %6, i64 24
  br label %21

21:                                               ; preds = %.lr.ph, %27
  %22 = load i8, ptr %20, align 8
  %23 = and i8 %22, -2
  %or.cond.i.i = icmp eq i8 %23, 12
  br i1 %or.cond.i.i, label %24, label %27

24:                                               ; preds = %21
  %25 = call noundef ptr @_ZN15SignatureStream11find_symbolEv(ptr noundef nonnull align 8 dereferenceable(48) %6) #14
  %26 = call noundef zeroext i1 @_ZN16SystemDictionary21add_loader_constraintEP6SymbolP5Klass6HandleS4_(ptr noundef %25, ptr noundef %1, ptr %2, ptr %3)
  br i1 %26, label %27, label %._crit_edge

27:                                               ; preds = %21, %24
  call void @_ZN15SignatureStream4nextEv(ptr noundef nonnull align 8 dereferenceable(48) %6) #14
  %28 = load i32, ptr %17, align 4
  %29 = icmp slt i32 %28, 0
  br i1 %29, label %._crit_edge, label %21, !llvm.loop !18

._crit_edge:                                      ; preds = %27, %24, %16
  %spec.select = phi ptr [ null, %16 ], [ %25, %24 ], [ null, %27 ]
  call void @_ZN15SignatureStreamD1Ev(ptr noundef nonnull align 8 dereferenceable(48) %6) #14
  br label %30

30:                                               ; preds = %._crit_edge, %_ZNK6HandleclEv.exit8
  %.1 = phi ptr [ null, %_ZNK6HandleclEv.exit8 ], [ %spec.select, %._crit_edge ]
  ret ptr %.1
}